target datalayout = "e-m:e-p270:32:32-p271:32:32-p272:64:64-i64:64-i128:128-f80:128-n8:16:32:64-S128"
target triple = "x86_64-pc-linux-gnu"

%struct.LZ4F_frameInfo_t = type { i32, i32, i32, i32, i64, i32, i32 }
%struct.lz4_writer = type { i32, i64, i64, i64, i64, i64, ptr, i32, ptr, %struct.LZ4F_preferences_t, ptr }
%struct.LZ4F_preferences_t = type { %struct.LZ4F_frameInfo_t, i32, i32, i32, [3 x i32] }

; Function Attrs: null_pointer_is_valid sspstrong uwtable
define internal zeroext i1 @lz4_write_out(ptr noundef %0, i64 noundef %1) #0 {
  %3 = alloca i1, align 1
  %4 = alloca ptr, align 8
  %5 = alloca i64, align 8
  %6 = alloca i64, align 8
  %7 = alloca i32, align 4
  store ptr %0, ptr %4, align 8
  store i64 %1, ptr %5, align 8
  %8 = load i64, ptr %5, align 8
  %9 = icmp ugt i64 %8, 0
  br i1 %9, label %10, label %46

10:                                               ; preds = %2
  call void @llvm.lifetime.start.p0(i64 8, ptr %6) #14
  %11 = load ptr, ptr %4, align 8
  %12 = getelementptr inbounds nuw %struct.lz4_writer, ptr %11, i32 0, i32 0
  %13 = load i32, ptr %12, align 8
  %14 = load ptr, ptr %4, align 8
  %15 = getelementptr inbounds nuw %struct.lz4_writer, ptr %14, i32 0, i32 6
  %16 = load ptr, ptr %15, align 8
  %17 = load i64, ptr %5, align 8
  %18 = trunc i64 %17 to i32
  %19 = zext i32 %18 to i64
  %20 = call i64 @write(i32 noundef %13, ptr noundef %16, i64 noundef %19)
  store i64 %20, ptr %6, align 8
  %21 = load i64, ptr %6, align 8
  %22 = icmp slt i64 %21, 0
  br i1 %22, label %23, label %28

23:                                               ; preds = %10
  %24 = call ptr @__errno_location() #17
  %25 = load i32, ptr %24, align 4
  %26 = load ptr, ptr %4, align 8
  %27 = getelementptr inbounds nuw %struct.lz4_writer, ptr %26, i32 0, i32 7
  store i32 %25, ptr %27, align 8
  store i1 false, ptr %3, align 1
  store i32 1, ptr %7, align 4
  br label %43

28:                                               ; preds = %10
  %29 = load i64, ptr %6, align 8
  %30 = trunc i64 %29 to i32
  %31 = zext i32 %30 to i64
  %32 = load i64, ptr %5, align 8
  %33 = icmp ne i64 %31, %32
  br i1 %33, label %34, label %37

34:                                               ; preds = %28
  %35 = load ptr, ptr %4, align 8
  %36 = getelementptr inbounds nuw %struct.lz4_writer, ptr %35, i32 0, i32 7
  store i32 -14, ptr %36, align 8
  store i1 false, ptr %3, align 1
  store i32 1, ptr %7, align 4
  br label %43

37:                                               ; preds = %28
  %38 = load i64, ptr %6, align 8
  %39 = load ptr, ptr %4, align 8
  %40 = getelementptr inbounds nuw %struct.lz4_writer, ptr %39, i32 0, i32 2
  %41 = load i64, ptr %40, align 8
  %42 = add i64 %41, %38
  store i64 %42, ptr %40, align 8
  store i32 0, ptr %7, align 4
  br label %43

43:                                               ; preds = %37, %34, %23
  call void @llvm.lifetime.end.p0(i64 8, ptr %6) #14
  %44 = load i32, ptr %7, align 4
  switch i32 %44, label %49 [
    i32 0, label %45
    i32 1, label %47
  ]

45:                                               ; preds = %43
  br label %46

46:                                               ; preds = %45, %2
  store i1 true, ptr %3, align 1
  br label %47

47:                                               ; preds = %46, %43
  %48 = load i1, ptr %3, align 1
  ret i1 %48

49:                                               ; preds = %43
  unreachable
}

; Function Attrs: null_pointer_is_valid sspstrong uwtable
define internal i32 @lz4_init(ptr noundef %0) #0 {
  %2 = alloca i32, align 4
  %3 = alloca ptr, align 8
  %4 = alloca i64, align 8
  %5 = alloca i32, align 4
  store ptr %0, ptr %3, align 8
  call void @llvm.lifetime.start.p0(i64 8, ptr %4) #14
  %6 = load ptr, ptr %3, align 8
  %7 = getelementptr inbounds nuw %struct.lz4_writer, ptr %6, i32 0, i32 10
  %8 = call i64 @LZ4F_createCompressionContext(ptr noundef %7, i32 noundef 100)
  store i64 %8, ptr %4, align 8
  %9 = load i64, ptr %4, align 8
  %10 = call i32 @LZ4F_isError(i64 noundef %9)
  %11 = icmp ne i32 %10, 0
  br i1 %11, label %12, label %19

12:                                               ; preds = %1
  %13 = load ptr, ptr %3, align 8
  %14 = getelementptr inbounds nuw %struct.lz4_writer, ptr %13, i32 0, i32 7
  store i32 -10, ptr %14, align 8
  %15 = load i64, ptr %4, align 8
  %16 = call ptr @LZ4F_getErrorName(i64 noundef %15)
  %17 = load ptr, ptr %3, align 8
  %18 = getelementptr inbounds nuw %struct.lz4_writer, ptr %17, i32 0, i32 8
  store ptr %16, ptr %18, align 8
  store i32 -1, ptr %2, align 4
  store i32 1, ptr %5, align 4
  br label %74

19:                                               ; preds = %1
  %20 = load ptr, ptr %3, align 8
  %21 = getelementptr inbounds nuw %struct.lz4_writer, ptr %20, i32 0, i32 5
  %22 = load i64, ptr %21, align 8
  %23 = call noalias ptr @g_try_malloc(i64 noundef %22) #16
  %24 = load ptr, ptr %3, align 8
  %25 = getelementptr inbounds nuw %struct.lz4_writer, ptr %24, i32 0, i32 6
  store ptr %23, ptr %25, align 8
  %26 = load ptr, ptr %3, align 8
  %27 = getelementptr inbounds nuw %struct.lz4_writer, ptr %26, i32 0, i32 6
  %28 = load ptr, ptr %27, align 8
  %29 = icmp eq ptr %28, null
  br i1 %29, label %30, label %40

30:                                               ; preds = %19
  %31 = load ptr, ptr %3, align 8
  %32 = getelementptr inbounds nuw %struct.lz4_writer, ptr %31, i32 0, i32 6
  %33 = load ptr, ptr %32, align 8
  call void @g_free(ptr noundef %33)
  %34 = load ptr, ptr %3, align 8
  %35 = getelementptr inbounds nuw %struct.lz4_writer, ptr %34, i32 0, i32 10
  %36 = load ptr, ptr %35, align 8
  %37 = call i64 @LZ4F_freeCompressionContext(ptr noundef %36)
  %38 = load ptr, ptr %3, align 8
  %39 = getelementptr inbounds nuw %struct.lz4_writer, ptr %38, i32 0, i32 7
  store i32 12, ptr %39, align 8
  store i32 -1, ptr %2, align 4
  store i32 1, ptr %5, align 4
  br label %74

40:                                               ; preds = %19
  %41 = load ptr, ptr %3, align 8
  %42 = getelementptr inbounds nuw %struct.lz4_writer, ptr %41, i32 0, i32 10
  %43 = load ptr, ptr %42, align 8
  %44 = load ptr, ptr %3, align 8
  %45 = getelementptr inbounds nuw %struct.lz4_writer, ptr %44, i32 0, i32 6
  %46 = load ptr, ptr %45, align 8
  %47 = load ptr, ptr %3, align 8
  %48 = getelementptr inbounds nuw %struct.lz4_writer, ptr %47, i32 0, i32 5
  %49 = load i64, ptr %48, align 8
  %50 = load ptr, ptr %3, align 8
  %51 = getelementptr inbounds nuw %struct.lz4_writer, ptr %50, i32 0, i32 9
  %52 = call i64 @LZ4F_compressBegin(ptr noundef %43, ptr noundef %46, i64 noundef %49, ptr noundef %51)
  store i64 %52, ptr %4, align 8
  %53 = load i64, ptr %4, align 8
  %54 = call i32 @LZ4F_isError(i64 noundef %53)
  %55 = icmp ne i32 %54, 0
  br i1 %55, label %56, label %63

56:                                               ; preds = %40
  %57 = load ptr, ptr %3, align 8
  %58 = getelementptr inbounds nuw %struct.lz4_writer, ptr %57, i32 0, i32 7
  store i32 -10, ptr %58, align 8
  %59 = load i64, ptr %4, align 8
  %60 = call ptr @LZ4F_getErrorName(i64 noundef %59)
  %61 = load ptr, ptr %3, align 8
  %62 = getelementptr inbounds nuw %struct.lz4_writer, ptr %61, i32 0, i32 8
  store ptr %60, ptr %62, align 8
  store i32 -1, ptr %2, align 4
  store i32 1, ptr %5, align 4
  br label %74

63:                                               ; preds = %40
  %64 = load ptr, ptr %3, align 8
  %65 = load i64, ptr %4, align 8
  %66 = call zeroext i1 @lz4_write_out(ptr noundef %64, i64 noundef %65)
  br i1 %66, label %68, label %67

67:                                               ; preds = %63
  store i32 -1, ptr %2, align 4
  store i32 1, ptr %5, align 4
  br label %74

68:                                               ; preds = %63
  %69 = load ptr, ptr %3, align 8
  %70 = getelementptr inbounds nuw %struct.lz4_writer, ptr %69, i32 0, i32 5
  %71 = load i64, ptr %70, align 8
  %72 = load ptr, ptr %3, align 8
  %73 = getelementptr inbounds nuw %struct.lz4_writer, ptr %72, i32 0, i32 3
  store i64 %71, ptr %73, align 8
  store i32 0, ptr %2, align 4
  store i32 1, ptr %5, align 4
  br label %74

74:                                               ; preds = %68, %67, %56, %30, %12
  call void @llvm.lifetime.end.p0(i64 8, ptr %4) #14
  %75 = load i32, ptr %2, align 4
  ret i32 %75
}

; Function Attrs: null_pointer_is_valid sspstrong uwtable
define hidden i64 @lz4wfile_write(ptr noundef %0, ptr noundef %1, i64 noundef %2) #0 {
  %4 = alloca i64, align 8
  %5 = alloca ptr, align 8
  %6 = alloca ptr, align 8
  %7 = alloca i64, align 8
  %8 = alloca i64, align 8
  %9 = alloca i64, align 8
  %10 = alloca i32, align 4
  %11 = alloca i64, align 8
  store ptr %0, ptr %5, align 8
  store ptr %1, ptr %6, align 8
  store i64 %2, ptr %7, align 8
  call void @llvm.lifetime.start.p0(i64 8, ptr %8) #14
  call void @llvm.lifetime.start.p0(i64 8, ptr %9) #14
  %12 = load i64, ptr %7, align 8
  store i64 %12, ptr %9, align 8
  %13 = load ptr, ptr %5, align 8
  %14 = getelementptr inbounds nuw %struct.lz4_writer, ptr %13, i32 0, i32 7
  %15 = load i32, ptr %14, align 8
  %16 = icmp ne i32 %15, 0
  br i1 %16, label %17, label %18

17:                                               ; preds = %3
  store i64 0, ptr %4, align 8
  store i32 1, ptr %10, align 4
  br label %91

18:                                               ; preds = %3
  %19 = load i64, ptr %7, align 8
  %20 = icmp eq i64 %19, 0
  br i1 %20, label %21, label %22

21:                                               ; preds = %18
  store i64 0, ptr %4, align 8
  store i32 1, ptr %10, align 4
  br label %91

22:                                               ; preds = %18
  %23 = load ptr, ptr %5, align 8
  %24 = getelementptr inbounds nuw %struct.lz4_writer, ptr %23, i32 0, i32 3
  %25 = load i64, ptr %24, align 8
  %26 = icmp eq i64 %25, 0
  br i1 %26, label %27, label %32

27:                                               ; preds = %22
  %28 = load ptr, ptr %5, align 8
  %29 = call i32 @lz4_init(ptr noundef %28)
  %30 = icmp eq i32 %29, -1
  br i1 %30, label %31, label %32

31:                                               ; preds = %27
  store i64 0, ptr %4, align 8
  store i32 1, ptr %10, align 4
  br label %91

32:                                               ; preds = %27, %22
  br label %33

33:                                               ; preds = %86, %32
  %34 = load i64, ptr %7, align 8
  %35 = load ptr, ptr %5, align 8
  %36 = getelementptr inbounds nuw %struct.lz4_writer, ptr %35, i32 0, i32 4
  %37 = load i64, ptr %36, align 8
  %38 = icmp ult i64 %34, %37
  br i1 %38, label %39, label %41

39:                                               ; preds = %33
  %40 = load i64, ptr %7, align 8
  br label %45

41:                                               ; preds = %33
  %42 = load ptr, ptr %5, align 8
  %43 = getelementptr inbounds nuw %struct.lz4_writer, ptr %42, i32 0, i32 4
  %44 = load i64, ptr %43, align 8
  br label %45

45:                                               ; preds = %41, %39
  %46 = phi i64 [ %40, %39 ], [ %44, %41 ]
  store i64 %46, ptr %8, align 8
  call void @llvm.lifetime.start.p0(i64 8, ptr %11) #14
  %47 = load ptr, ptr %5, align 8
  %48 = getelementptr inbounds nuw %struct.lz4_writer, ptr %47, i32 0, i32 10
  %49 = load ptr, ptr %48, align 8
  %50 = load ptr, ptr %5, align 8
  %51 = getelementptr inbounds nuw %struct.lz4_writer, ptr %50, i32 0, i32 6
  %52 = load ptr, ptr %51, align 8
  %53 = load ptr, ptr %5, align 8
  %54 = getelementptr inbounds nuw %struct.lz4_writer, ptr %53, i32 0, i32 3
  %55 = load i64, ptr %54, align 8
  %56 = load ptr, ptr %6, align 8
  %57 = load i64, ptr %8, align 8
  %58 = call i64 @LZ4F_compressUpdate(ptr noundef %49, ptr noundef %52, i64 noundef %55, ptr noundef %56, i64 noundef %57, ptr noundef null)
  store i64 %58, ptr %11, align 8
  %59 = load i64, ptr %11, align 8
  %60 = call i32 @LZ4F_isError(i64 noundef %59)
  %61 = icmp ne i32 %60, 0
  br i1 %61, label %62, label %69

62:                                               ; preds = %45
  %63 = load ptr, ptr %5, align 8
  %64 = getelementptr inbounds nuw %struct.lz4_writer, ptr %63, i32 0, i32 7
  store i32 -10, ptr %64, align 8
  %65 = load i64, ptr %11, align 8
  %66 = call ptr @LZ4F_getErrorName(i64 noundef %65)
  %67 = load ptr, ptr %5, align 8
  %68 = getelementptr inbounds nuw %struct.lz4_writer, ptr %67, i32 0, i32 8
  store ptr %66, ptr %68, align 8
  store i64 0, ptr %4, align 8
  store i32 1, ptr %10, align 4
  br label %83

69:                                               ; preds = %45
  %70 = load ptr, ptr %5, align 8
  %71 = load i64, ptr %11, align 8
  %72 = call zeroext i1 @lz4_write_out(ptr noundef %70, i64 noundef %71)
  br i1 %72, label %74, label %73

73:                                               ; preds = %69
  store i64 0, ptr %4, align 8
  store i32 1, ptr %10, align 4
  br label %83

74:                                               ; preds = %69
  %75 = load i64, ptr %8, align 8
  %76 = load ptr, ptr %5, align 8
  %77 = getelementptr inbounds nuw %struct.lz4_writer, ptr %76, i32 0, i32 1
  %78 = load i64, ptr %77, align 8
  %79 = add i64 %78, %75
  store i64 %79, ptr %77, align 8
  %80 = load i64, ptr %8, align 8
  %81 = load i64, ptr %7, align 8
  %82 = sub i64 %81, %80
  store i64 %82, ptr %7, align 8
  store i32 0, ptr %10, align 4
  br label %83

83:                                               ; preds = %74, %73, %62
  call void @llvm.lifetime.end.p0(i64 8, ptr %11) #14
  %84 = load i32, ptr %10, align 4
  switch i32 %84, label %91 [
    i32 0, label %85
  ]

85:                                               ; preds = %83
  br label %86

86:                                               ; preds = %85
  %87 = load i64, ptr %7, align 8
  %88 = icmp ne i64 %87, 0
  br i1 %88, label %33, label %89, !llvm.loop !23

89:                                               ; preds = %86
  %90 = load i64, ptr %9, align 8
  store i64 %90, ptr %4, align 8
  store i32 1, ptr %10, align 4
  br label %91

91:                                               ; preds = %89, %83, %31, %21, %17
  call void @llvm.lifetime.end.p0(i64 8, ptr %9) #14
  call void @llvm.lifetime.end.p0(i64 8, ptr %8) #14
  %92 = load i64, ptr %4, align 8
  ret i64 %92
}