; Function Attrs: null_pointer_is_valid sspstrong uwtable
define hidden noundef i64 @lz4wfile_write(ptr noundef %0, ptr noundef %1, i64 noundef %2) local_unnamed_addr #0 {
  %4 = getelementptr inbounds nuw i8, ptr %0, i64 56
  %5 = load i32, ptr %4, align 8
  %.not = icmp ne i32 %5, 0
  %6 = icmp eq i64 %2, 0
  %or.cond = or i1 %6, %.not
  br i1 %or.cond, label %lz4_init.exit.thread, label %7

7:                                                ; preds = %3
  %8 = getelementptr inbounds nuw i8, ptr %0, i64 24
  %9 = load i64, ptr %8, align 8
  %10 = icmp eq i64 %9, 0
  br i1 %10, label %11, label %54

11:                                               ; preds = %7
  %12 = getelementptr inbounds nuw i8, ptr %0, i64 128
  %13 = tail call i64 @LZ4F_createCompressionContext(ptr noundef nonnull %12, i32 noundef 100)
  %14 = tail call i32 @LZ4F_isError(i64 noundef %13)
  %.not.i = icmp eq i32 %14, 0
  br i1 %.not.i, label %18, label %15

15:                                               ; preds = %11
  store i32 -10, ptr %4, align 8
  %16 = tail call ptr @LZ4F_getErrorName(i64 noundef %13)
  %17 = getelementptr inbounds nuw i8, ptr %0, i64 64
  store ptr %16, ptr %17, align 8
  br label %lz4_init.exit.thread

18:                                               ; preds = %11
  %19 = getelementptr inbounds nuw i8, ptr %0, i64 40
  %20 = load i64, ptr %19, align 8
  %21 = tail call noalias ptr @g_try_malloc(i64 noundef %20) #22
  %22 = getelementptr inbounds nuw i8, ptr %0, i64 48
  store ptr %21, ptr %22, align 8
  %23 = icmp eq ptr %21, null
  br i1 %23, label %24, label %27

24:                                               ; preds = %18
  tail call void @g_free(ptr noundef null)
  %25 = load ptr, ptr %12, align 8
  %26 = tail call i64 @LZ4F_freeCompressionContext(ptr noundef %25)
  store i32 12, ptr %4, align 8
  br label %lz4_init.exit.thread

27:                                               ; preds = %18
  %28 = load ptr, ptr %12, align 8
  %29 = load i64, ptr %19, align 8
  %30 = getelementptr inbounds nuw i8, ptr %0, i64 72
  %31 = tail call i64 @LZ4F_compressBegin(ptr noundef %28, ptr noundef nonnull %21, i64 noundef %29, ptr noundef nonnull %30)
  %32 = tail call i32 @LZ4F_isError(i64 noundef %31)
  %.not24.i = icmp eq i32 %32, 0
  br i1 %.not24.i, label %36, label %33

33:                                               ; preds = %27
  store i32 -10, ptr %4, align 8
  %34 = tail call ptr @LZ4F_getErrorName(i64 noundef %31)
  %35 = getelementptr inbounds nuw i8, ptr %0, i64 64
  store ptr %34, ptr %35, align 8
  br label %lz4_init.exit.thread

36:                                               ; preds = %27
  %.not.i.i = icmp eq i64 %31, 0
  br i1 %.not.i.i, label %lz4_init.exit, label %37

37:                                               ; preds = %36
  %38 = load i32, ptr %0, align 8
  %39 = load ptr, ptr %22, align 8
  %40 = and i64 %31, 4294967295
  %41 = tail call i64 @write(i32 noundef %38, ptr noundef %39, i64 noundef %40)
  %42 = icmp slt i64 %41, 0
  br i1 %42, label %43, label %46

43:                                               ; preds = %37
  %44 = tail call ptr @__errno_location() #23
  %45 = load i32, ptr %44, align 4
  store i32 %45, ptr %4, align 8
  br label %lz4_init.exit.thread

46:                                               ; preds = %37
  %47 = and i64 %41, 4294967295
  %.not15.i.i = icmp eq i64 %47, %31
  br i1 %.not15.i.i, label %49, label %48

48:                                               ; preds = %46
  store i32 -14, ptr %4, align 8
  br label %lz4_init.exit.thread

49:                                               ; preds = %46
  %50 = getelementptr inbounds nuw i8, ptr %0, i64 16
  %51 = load i64, ptr %50, align 8
  %52 = add i64 %51, %41
  store i64 %52, ptr %50, align 8
  br label %lz4_init.exit

lz4_init.exit:                                    ; preds = %36, %49
  %53 = load i64, ptr %19, align 8
  store i64 %53, ptr %8, align 8
  br label %54

54:                                               ; preds = %lz4_init.exit, %7
  %55 = getelementptr inbounds nuw i8, ptr %0, i64 32
  %56 = getelementptr inbounds nuw i8, ptr %0, i64 128
  %57 = getelementptr inbounds nuw i8, ptr %0, i64 48
  %58 = getelementptr inbounds nuw i8, ptr %0, i64 16
  %59 = getelementptr inbounds nuw i8, ptr %0, i64 8
  br label %60

60:                                               ; preds = %86, %54
  %.028 = phi i64 [ %2, %54 ], [ %89, %86 ]
  %61 = load i64, ptr %55, align 8
  %.028. = tail call i64 @llvm.umin.i64(i64 %.028, i64 %61)
  %62 = load ptr, ptr %56, align 8
  %63 = load ptr, ptr %57, align 8
  %64 = load i64, ptr %8, align 8
  %65 = tail call i64 @LZ4F_compressUpdate(ptr noundef %62, ptr noundef %63, i64 noundef %64, ptr noundef %1, i64 noundef %.028., ptr noundef null)
  %66 = tail call i32 @LZ4F_isError(i64 noundef %65)
  %.not32 = icmp eq i32 %66, 0
  br i1 %.not32, label %70, label %67

67:                                               ; preds = %60
  store i32 -10, ptr %4, align 8
  %68 = tail call ptr @LZ4F_getErrorName(i64 noundef %65)
  %69 = getelementptr inbounds nuw i8, ptr %0, i64 64
  store ptr %68, ptr %69, align 8
  br label %lz4_init.exit.thread

70:                                               ; preds = %60
  %.not.i34 = icmp eq i64 %65, 0
  br i1 %.not.i34, label %86, label %71

71:                                               ; preds = %70
  %72 = load i32, ptr %0, align 8
  %73 = load ptr, ptr %57, align 8
  %74 = and i64 %65, 4294967295
  %75 = tail call i64 @write(i32 noundef %72, ptr noundef %73, i64 noundef %74)
  %76 = icmp slt i64 %75, 0
  br i1 %76, label %77, label %80

77:                                               ; preds = %71
  %78 = tail call ptr @__errno_location() #23
  %79 = load i32, ptr %78, align 4
  store i32 %79, ptr %4, align 8
  br label %lz4_init.exit.thread

80:                                               ; preds = %71
  %81 = and i64 %75, 4294967295
  %.not15.i = icmp eq i64 %81, %65
  br i1 %.not15.i, label %83, label %82

82:                                               ; preds = %80
  store i32 -14, ptr %4, align 8
  br label %lz4_init.exit.thread

83:                                               ; preds = %80
  %84 = load i64, ptr %58, align 8
  %85 = add i64 %84, %75
  store i64 %85, ptr %58, align 8
  br label %86

86:                                               ; preds = %83, %70
  %87 = load i64, ptr %59, align 8
  %88 = add i64 %87, %.028.
  store i64 %88, ptr %59, align 8
  %89 = sub i64 %.028, %.028.
  %.not33 = icmp eq i64 %89, 0
  br i1 %.not33, label %lz4_init.exit.thread, label %60, !llvm.loop !42

lz4_init.exit.thread:                             ; preds = %86, %82, %77, %67, %48, %43, %33, %24, %15, %3
  %.0 = phi i64 [ 0, %3 ], [ 0, %15 ], [ 0, %24 ], [ 0, %33 ], [ 0, %43 ], [ 0, %48 ], [ 0, %67 ], [ 0, %77 ], [ 0, %82 ], [ %2, %86 ]
  ret i64 %.0
}